; Function Attrs: nounwind uwtable
define hidden range(i32 -2147483648, 2) i32 @ssl_do_client_cert_cb(ptr noundef %0, ptr noundef %1, ptr noundef %2) local_unnamed_addr #0 {
  %4 = getelementptr inbounds nuw i8, ptr %0, i64 232
  %5 = load ptr, ptr %4, align 8, !tbaa !35
  %6 = getelementptr inbounds nuw i8, ptr %5, i64 224
  %7 = load ptr, ptr %6, align 8, !tbaa !150
  %8 = icmp eq ptr %7, null
  br i1 %8, label %11, label %9

9:                                                ; preds = %3
  %10 = tail call i32 %7(ptr noundef nonnull %0, ptr noundef %1, ptr noundef %2) #11
  %. = tail call i32 @llvm.smin.i32(i32 %10, i32 1)
  br label %11

11:                                               ; preds = %3, %9
  %.0 = phi i32 [ %., %9 ], [ 0, %3 ]
  ret i32 %.0
}